; Function Attrs: mustprogress uwtable
define void @_ZN6icu_7739FormattedValueFieldPositionIteratorImplC2EiR10UErrorCode(ptr noundef nonnull align 8 dereferenceable(104) initializes((0, 18)) %0, i32 noundef %1, ptr noundef nonnull align 4 dereferenceable(4) %2) unnamed_addr #1 align 2 personality ptr @__gxx_personality_v0 {
  store ptr getelementptr inbounds nuw inrange(-16, 48) (i8, ptr @_ZTVN6icu_7739FormattedValueFieldPositionIteratorImplE, i64 16), ptr %0, align 8, !tbaa !15
  %4 = getelementptr inbounds nuw i8, ptr %0, i64 8
  store ptr getelementptr inbounds nuw inrange(-16, 88) (i8, ptr @_ZTVN6icu_7713UnicodeStringE, i64 16), ptr %4, align 8, !tbaa !15
  %5 = getelementptr inbounds nuw i8, ptr %0, i64 16
  store i16 2, ptr %5, align 8, !tbaa !17
  %6 = getelementptr inbounds nuw i8, ptr %0, i64 72
  %7 = shl nsw i32 %1, 2
  invoke void @_ZN6icu_779UVector32C1EiR10UErrorCode(ptr noundef nonnull align 8 dereferenceable(32) %6, i32 noundef %7, ptr noundef nonnull align 4 dereferenceable(4) %2)
          to label %8 unwind label %9

8:                                                ; preds = %3
  ret void

9:                                                ; preds = %3
  %10 = landingpad { ptr, i32 }
          cleanup
  tail call void @_ZN6icu_7713UnicodeStringD1Ev(ptr noundef nonnull align 8 dereferenceable(64) %4) #11
  tail call void @_ZN6icu_7714FormattedValueD2Ev(ptr noundef nonnull align 8 dereferenceable(8) %0) #11
  resume { ptr, i32 } %10
}